target datalayout = "e-m:e-p270:32:32-p271:32:32-p272:64:64-i64:64-i128:128-f80:128-n8:16:32:64-S128"
target triple = "x86_64-pc-linux-gnu"

%"class.folly::MemoryMapping" = type { %"class.folly::File", ptr, i64, %"struct.folly::MemoryMapping::Options", i8, %"class.folly::Range" }
%"class.folly::File" = type <{ i32, i8, [3 x i8] }>
%"struct.folly::MemoryMapping::Options" = type { i64, i8, i8, i8, i8, i8, ptr }
%"class.folly::Range" = type { ptr, ptr }

; Function Attrs: mustprogress nounwind uwtable
define linkonce_odr void @_ZN5folly5RangeIPhEC2Ev(ptr noundef nonnull align 8 dereferenceable(16) %0) unnamed_addr #2 comdat align 2 {
  %2 = alloca ptr, align 8
  store ptr %0, ptr %2, align 8, !tbaa !49
  %3 = load ptr, ptr %2, align 8
  %4 = getelementptr inbounds nuw %"class.folly::Range", ptr %3, i32 0, i32 0
  store ptr null, ptr %4, align 8, !tbaa !51
  %5 = getelementptr inbounds nuw %"class.folly::Range", ptr %3, i32 0, i32 1
  store ptr null, ptr %5, align 8, !tbaa !52
  ret void
}

; Function Attrs: mustprogress nounwind uwtable
define linkonce_odr void @_ZN5folly4FileC2Ev(ptr noundef nonnull align 4 dereferenceable(5) %0) unnamed_addr #2 comdat align 2 {
  %2 = alloca ptr, align 8
  store ptr %0, ptr %2, align 8, !tbaa !36
  %3 = load ptr, ptr %2, align 8
  %4 = getelementptr inbounds nuw %"class.folly::File", ptr %3, i32 0, i32 0
  store i32 -1, ptr %4, align 4, !tbaa !38
  %5 = getelementptr inbounds nuw %"class.folly::File", ptr %3, i32 0, i32 1
  store i8 0, ptr %5, align 4, !tbaa !39
  ret void
}

; Function Attrs: mustprogress uwtable
define void @_ZN5folly13MemoryMappingC2ENS0_13AnonymousTypeElNS0_7OptionsE(ptr noundef nonnull align 8 dereferenceable(72) %0, i32 noundef %1, i64 noundef %2, ptr noundef byval(%"struct.folly::MemoryMapping::Options") align 8 %3) unnamed_addr #5 align 2 personality ptr @__gxx_personality_v0 {
  %5 = alloca ptr, align 8
  %6 = alloca i32, align 4
  %7 = alloca i64, align 8
  %8 = alloca ptr, align 8
  %9 = alloca i32, align 4
  store ptr %0, ptr %5, align 8, !tbaa !25
  store i32 %1, ptr %6, align 4, !tbaa !92
  store i64 %2, ptr %7, align 8, !tbaa !22
  %10 = load ptr, ptr %5, align 8
  %11 = getelementptr inbounds nuw %"class.folly::MemoryMapping", ptr %10, i32 0, i32 0
  call void @_ZN5folly4FileC2Ev(ptr noundef nonnull align 4 dereferenceable(5) %11) #17
  %12 = getelementptr inbounds nuw %"class.folly::MemoryMapping", ptr %10, i32 0, i32 1
  store ptr null, ptr %12, align 8, !tbaa !27
  %13 = getelementptr inbounds nuw %"class.folly::MemoryMapping", ptr %10, i32 0, i32 2
  store i64 0, ptr %13, align 8, !tbaa !34
  %14 = getelementptr inbounds nuw %"class.folly::MemoryMapping", ptr %10, i32 0, i32 3
  call void @llvm.memcpy.p0.p0.i64(ptr align 8 %14, ptr align 8 %3, i64 24, i1 false), !tbaa.struct !53
  %15 = getelementptr inbounds nuw %"class.folly::MemoryMapping", ptr %10, i32 0, i32 4
  store i8 0, ptr %15, align 8, !tbaa !35
  %16 = getelementptr inbounds nuw %"class.folly::MemoryMapping", ptr %10, i32 0, i32 5
  invoke void @_ZN5folly5RangeIPhEC2Ev(ptr noundef nonnull align 8 dereferenceable(16) %16)
          to label %17 unwind label %20

17:                                               ; preds = %4
  %18 = load i64, ptr %7, align 8, !tbaa !22
  invoke void @_ZN5folly13MemoryMapping4initEll(ptr noundef nonnull align 8 dereferenceable(72) %10, i64 noundef 0, i64 noundef %18)
          to label %19 unwind label %20

19:                                               ; preds = %17
  ret void

20:                                               ; preds = %17, %4
  %21 = landingpad { ptr, i32 }
          cleanup
  %22 = extractvalue { ptr, i32 } %21, 0
  store ptr %22, ptr %8, align 8
  %23 = extractvalue { ptr, i32 } %21, 1
  store i32 %23, ptr %9, align 4
  call void @_ZN5folly4FileD1Ev(ptr noundef nonnull align 4 dereferenceable(5) %11) #17
  br label %24

24:                                               ; preds = %20
  %25 = load ptr, ptr %8, align 8
  %26 = load i32, ptr %9, align 4
  %27 = insertvalue { ptr, i32 } poison, ptr %25, 0
  %28 = insertvalue { ptr, i32 } %27, i32 %26, 1
  resume { ptr, i32 } %28
}