; Function Attrs: mustprogress uwtable
define void @_ZN5folly13MemoryMappingC2ENS0_13AnonymousTypeElNS0_7OptionsE(ptr noundef nonnull align 8 dereferenceable(72) initializes((0, 5), (8, 49), (56, 72)) %0, i32 %1, i64 noundef %2, ptr noundef readonly byval(%"struct.folly::MemoryMapping::Options") align 8 captures(none) %3) unnamed_addr #7 align 2 personality ptr @__gxx_personality_v0 {
  store i32 -1, ptr %0, align 8, !tbaa !7
  %5 = getelementptr inbounds nuw i8, ptr %0, i64 4
  store i8 0, ptr %5, align 4, !tbaa !13
  %6 = getelementptr inbounds nuw i8, ptr %0, i64 8
  %7 = getelementptr inbounds nuw i8, ptr %0, i64 24
  tail call void @llvm.memset.p0.i64(ptr noundef nonnull align 8 dereferenceable(16) %6, i8 0, i64 16, i1 false)
  call void @llvm.memcpy.p0.p0.i64(ptr noundef nonnull align 8 dereferenceable(24) %7, ptr noundef nonnull align 8 dereferenceable(24) %3, i64 24, i1 false), !tbaa.struct !29
  %8 = getelementptr inbounds nuw i8, ptr %0, i64 48
  store i8 0, ptr %8, align 8, !tbaa !23
  %9 = getelementptr inbounds nuw i8, ptr %0, i64 56
  tail call void @llvm.memset.p0.i64(ptr noundef nonnull align 8 dereferenceable(16) %9, i8 0, i64 16, i1 false)
  invoke void @_ZN5folly13MemoryMapping4initEll(ptr noundef nonnull align 8 dereferenceable(72) %0, i64 noundef 0, i64 noundef %2)
          to label %10 unwind label %11

10:                                               ; preds = %4
  ret void

11:                                               ; preds = %4
  %12 = landingpad { ptr, i32 }
          cleanup
  tail call void @_ZN5folly4FileD1Ev(ptr noundef nonnull align 4 dereferenceable(5) %0) #20
  resume { ptr, i32 } %12
}